target datalayout = "e-m:e-p270:32:32-p271:32:32-p272:64:64-i64:64-i128:128-f80:128-n8:16:32:64-S128"
target triple = "x86_64-pc-linux-gnu"

%"struct.icu_77::ChineseCalendar::Setting" = type { i32, ptr, ptr, ptr }

@_ZN6icu_7718CalendarAstronomer13SYNODIC_MONTHE = external constant double, align 8

; Function Attrs: mustprogress nounwind uwtable
define internal noundef i32 @_ZN6icu_7712_GLOBAL__N_120synodicMonthsBetweenEii(i32 noundef %0, i32 noundef %1) #3 {
  %3 = alloca i32, align 4
  %4 = alloca i32, align 4
  %5 = alloca double, align 8
  store i32 %0, ptr %3, align 4, !tbaa !29
  store i32 %1, ptr %4, align 4, !tbaa !29
  call void @llvm.lifetime.start.p0(i64 8, ptr %5) #13
  %6 = load i32, ptr %4, align 4, !tbaa !29
  %7 = load i32, ptr %3, align 4, !tbaa !29
  %8 = sub nsw i32 %6, %7
  %9 = sitofp i32 %8 to double
  %10 = load double, ptr @_ZN6icu_7718CalendarAstronomer13SYNODIC_MONTHE, align 8, !tbaa !47
  %11 = fdiv double %9, %10
  store double %11, ptr %5, align 8, !tbaa !47
  %12 = load double, ptr %5, align 8, !tbaa !47
  %13 = load double, ptr %5, align 8, !tbaa !47
  %14 = fcmp oge double %13, 0.000000e+00
  %15 = select i1 %14, double 5.000000e-01, double -5.000000e-01
  %16 = fadd double %12, %15
  %17 = fptosi double %16 to i32
  call void @llvm.lifetime.end.p0(i64 8, ptr %5) #13
  ret i32 %17
}

; Function Attrs: inlinehint mustprogress nounwind uwtable
define internal noundef signext i8 @_ZL9U_FAILURE10UErrorCode(i32 noundef %0) #4 {
  %2 = alloca i32, align 4
  store i32 %0, ptr %2, align 4, !tbaa !30
  %3 = load i32, ptr %2, align 4, !tbaa !30
  %4 = icmp sgt i32 %3, 0
  %5 = zext i1 %4 to i8
  ret i8 %5
}

; Function Attrs: mustprogress uwtable
define internal noundef i32 @_ZN6icu_7712_GLOBAL__N_17newYearERKNS_15ChineseCalendar7SettingEiR10UErrorCode(ptr noundef nonnull align 8 dereferenceable(32) %0, i32 noundef %1, ptr noundef nonnull align 4 dereferenceable(4) %2) #0 {
  %4 = alloca i32, align 4
  %5 = alloca ptr, align 8
  %6 = alloca i32, align 4
  %7 = alloca ptr, align 8
  %8 = alloca ptr, align 8
  %9 = alloca i32, align 4
  %10 = alloca i32, align 4
  %11 = alloca i32, align 4
  %12 = alloca i32, align 4
  %13 = alloca i32, align 4
  %14 = alloca i32, align 4
  %15 = alloca i32, align 4
  store ptr %0, ptr %5, align 8, !tbaa !48
  store i32 %1, ptr %6, align 4, !tbaa !29
  store ptr %2, ptr %7, align 8, !tbaa !10
  %16 = load ptr, ptr %7, align 8, !tbaa !10
  %17 = load i32, ptr %16, align 4, !tbaa !30
  %18 = call noundef signext i8 @_ZL9U_FAILURE10UErrorCode(i32 noundef %17)
  %19 = icmp ne i8 %18, 0
  br i1 %19, label %20, label %21

20:                                               ; preds = %3
  store i32 0, ptr %4, align 4
  br label %123

21:                                               ; preds = %3
  call void @llvm.lifetime.start.p0(i64 8, ptr %8) #13
  %22 = load ptr, ptr %5, align 8, !tbaa !48
  %23 = getelementptr inbounds nuw %"struct.icu_77::ChineseCalendar::Setting", ptr %22, i32 0, i32 1
  %24 = load ptr, ptr %23, align 8, !tbaa !42
  store ptr %24, ptr %8, align 8, !tbaa !46
  call void @llvm.lifetime.start.p0(i64 4, ptr %9) #13
  %25 = load ptr, ptr %5, align 8, !tbaa !48
  %26 = getelementptr inbounds nuw %"struct.icu_77::ChineseCalendar::Setting", ptr %25, i32 0, i32 3
  %27 = load ptr, ptr %26, align 8, !tbaa !50
  %28 = load i32, ptr %6, align 4, !tbaa !29
  %29 = load ptr, ptr %7, align 8, !tbaa !10
  %30 = call noundef i32 @_ZN6icu_7713CalendarCache3getEPPS0_iR10UErrorCode(ptr noundef %27, i32 noundef %28, ptr noundef nonnull align 4 dereferenceable(4) %29)
  store i32 %30, ptr %9, align 4, !tbaa !29
  %31 = load ptr, ptr %7, align 8, !tbaa !10
  %32 = load i32, ptr %31, align 4, !tbaa !30
  %33 = call noundef signext i8 @_ZL9U_FAILURE10UErrorCode(i32 noundef %32)
  %34 = icmp ne i8 %33, 0
  br i1 %34, label %35, label %36

35:                                               ; preds = %21
  store i32 0, ptr %4, align 4
  store i32 1, ptr %10, align 4
  br label %122

36:                                               ; preds = %21
  %37 = load i32, ptr %9, align 4, !tbaa !29
  %38 = icmp eq i32 %37, 0
  br i1 %38, label %39, label %114

39:                                               ; preds = %36
  call void @llvm.lifetime.start.p0(i64 4, ptr %11) #13
  %40 = load ptr, ptr %5, align 8, !tbaa !48
  %41 = load i32, ptr %6, align 4, !tbaa !29
  %42 = sub nsw i32 %41, 1
  %43 = load ptr, ptr %7, align 8, !tbaa !10
  %44 = call noundef i32 @_ZN6icu_7712_GLOBAL__N_114winterSolsticeERKNS_15ChineseCalendar7SettingEiR10UErrorCode(ptr noundef nonnull align 8 dereferenceable(32) %40, i32 noundef %42, ptr noundef nonnull align 4 dereferenceable(4) %43)
  store i32 %44, ptr %11, align 4, !tbaa !29
  call void @llvm.lifetime.start.p0(i64 4, ptr %12) #13
  %45 = load ptr, ptr %5, align 8, !tbaa !48
  %46 = load i32, ptr %6, align 4, !tbaa !29
  %47 = load ptr, ptr %7, align 8, !tbaa !10
  %48 = call noundef i32 @_ZN6icu_7712_GLOBAL__N_114winterSolsticeERKNS_15ChineseCalendar7SettingEiR10UErrorCode(ptr noundef nonnull align 8 dereferenceable(32) %45, i32 noundef %46, ptr noundef nonnull align 4 dereferenceable(4) %47)
  store i32 %48, ptr %12, align 4, !tbaa !29
  call void @llvm.lifetime.start.p0(i64 4, ptr %13) #13
  %49 = load ptr, ptr %8, align 8, !tbaa !46
  %50 = load i32, ptr %11, align 4, !tbaa !29
  %51 = add nsw i32 %50, 1
  %52 = sitofp i32 %51 to double
  %53 = load ptr, ptr %7, align 8, !tbaa !10
  %54 = call noundef i32 @_ZN6icu_7712_GLOBAL__N_111newMoonNearEPKNS_8TimeZoneEdaR10UErrorCode(ptr noundef %49, double noundef %52, i8 noundef signext 1, ptr noundef nonnull align 4 dereferenceable(4) %53)
  store i32 %54, ptr %13, align 4, !tbaa !29
  call void @llvm.lifetime.start.p0(i64 4, ptr %14) #13
  %55 = load ptr, ptr %8, align 8, !tbaa !46
  %56 = load i32, ptr %13, align 4, !tbaa !29
  %57 = add nsw i32 %56, 25
  %58 = sitofp i32 %57 to double
  %59 = load ptr, ptr %7, align 8, !tbaa !10
  %60 = call noundef i32 @_ZN6icu_7712_GLOBAL__N_111newMoonNearEPKNS_8TimeZoneEdaR10UErrorCode(ptr noundef %55, double noundef %58, i8 noundef signext 1, ptr noundef nonnull align 4 dereferenceable(4) %59)
  store i32 %60, ptr %14, align 4, !tbaa !29
  call void @llvm.lifetime.start.p0(i64 4, ptr %15) #13
  %61 = load ptr, ptr %8, align 8, !tbaa !46
  %62 = load i32, ptr %12, align 4, !tbaa !29
  %63 = add nsw i32 %62, 1
  %64 = sitofp i32 %63 to double
  %65 = load ptr, ptr %7, align 8, !tbaa !10
  %66 = call noundef i32 @_ZN6icu_7712_GLOBAL__N_111newMoonNearEPKNS_8TimeZoneEdaR10UErrorCode(ptr noundef %61, double noundef %64, i8 noundef signext 0, ptr noundef nonnull align 4 dereferenceable(4) %65)
  store i32 %66, ptr %15, align 4, !tbaa !29
  %67 = load ptr, ptr %7, align 8, !tbaa !10
  %68 = load i32, ptr %67, align 4, !tbaa !30
  %69 = call noundef signext i8 @_ZL9U_FAILURE10UErrorCode(i32 noundef %68)
  %70 = icmp ne i8 %69, 0
  br i1 %70, label %71, label %72

71:                                               ; preds = %39
  store i32 0, ptr %4, align 4
  store i32 1, ptr %10, align 4
  br label %111

72:                                               ; preds = %39
  %73 = load i32, ptr %13, align 4, !tbaa !29
  %74 = load i32, ptr %15, align 4, !tbaa !29
  %75 = call noundef i32 @_ZN6icu_7712_GLOBAL__N_120synodicMonthsBetweenEii(i32 noundef %73, i32 noundef %74)
  %76 = icmp eq i32 %75, 12
  br i1 %76, label %77, label %96

77:                                               ; preds = %72
  %78 = load ptr, ptr %8, align 8, !tbaa !46
  %79 = load i32, ptr %13, align 4, !tbaa !29
  %80 = load ptr, ptr %7, align 8, !tbaa !10
  %81 = call noundef signext i8 @_ZN6icu_7712_GLOBAL__N_119hasNoMajorSolarTermEPKNS_8TimeZoneEiR10UErrorCode(ptr noundef %78, i32 noundef %79, ptr noundef nonnull align 4 dereferenceable(4) %80)
  %82 = icmp ne i8 %81, 0
  br i1 %82, label %89, label %83

83:                                               ; preds = %77
  %84 = load ptr, ptr %8, align 8, !tbaa !46
  %85 = load i32, ptr %14, align 4, !tbaa !29
  %86 = load ptr, ptr %7, align 8, !tbaa !10
  %87 = call noundef signext i8 @_ZN6icu_7712_GLOBAL__N_119hasNoMajorSolarTermEPKNS_8TimeZoneEiR10UErrorCode(ptr noundef %84, i32 noundef %85, ptr noundef nonnull align 4 dereferenceable(4) %86)
  %88 = icmp ne i8 %87, 0
  br i1 %88, label %89, label %96

89:                                               ; preds = %83, %77
  %90 = load ptr, ptr %8, align 8, !tbaa !46
  %91 = load i32, ptr %14, align 4, !tbaa !29
  %92 = add nsw i32 %91, 25
  %93 = sitofp i32 %92 to double
  %94 = load ptr, ptr %7, align 8, !tbaa !10
  %95 = call noundef i32 @_ZN6icu_7712_GLOBAL__N_111newMoonNearEPKNS_8TimeZoneEdaR10UErrorCode(ptr noundef %90, double noundef %93, i8 noundef signext 1, ptr noundef nonnull align 4 dereferenceable(4) %94)
  store i32 %95, ptr %9, align 4, !tbaa !29
  br label %98

96:                                               ; preds = %83, %72
  %97 = load i32, ptr %14, align 4, !tbaa !29
  store i32 %97, ptr %9, align 4, !tbaa !29
  br label %98

98:                                               ; preds = %96, %89
  %99 = load ptr, ptr %7, align 8, !tbaa !10
  %100 = load i32, ptr %99, align 4, !tbaa !30
  %101 = call noundef signext i8 @_ZL9U_FAILURE10UErrorCode(i32 noundef %100)
  %102 = icmp ne i8 %101, 0
  br i1 %102, label %103, label %104

103:                                              ; preds = %98
  store i32 0, ptr %4, align 4
  store i32 1, ptr %10, align 4
  br label %111

104:                                              ; preds = %98
  %105 = load ptr, ptr %5, align 8, !tbaa !48
  %106 = getelementptr inbounds nuw %"struct.icu_77::ChineseCalendar::Setting", ptr %105, i32 0, i32 3
  %107 = load ptr, ptr %106, align 8, !tbaa !50
  %108 = load i32, ptr %6, align 4, !tbaa !29
  %109 = load i32, ptr %9, align 4, !tbaa !29
  %110 = load ptr, ptr %7, align 8, !tbaa !10
  call void @_ZN6icu_7713CalendarCache3putEPPS0_iiR10UErrorCode(ptr noundef %107, i32 noundef %108, i32 noundef %109, ptr noundef nonnull align 4 dereferenceable(4) %110)
  store i32 0, ptr %10, align 4
  br label %111

111:                                              ; preds = %104, %103, %71
  call void @llvm.lifetime.end.p0(i64 4, ptr %15) #13
  call void @llvm.lifetime.end.p0(i64 4, ptr %14) #13
  call void @llvm.lifetime.end.p0(i64 4, ptr %13) #13
  call void @llvm.lifetime.end.p0(i64 4, ptr %12) #13
  call void @llvm.lifetime.end.p0(i64 4, ptr %11) #13
  %112 = load i32, ptr %10, align 4
  switch i32 %112, label %122 [
    i32 0, label %113
  ]

113:                                              ; preds = %111
  br label %114

114:                                              ; preds = %113, %36
  %115 = load ptr, ptr %7, align 8, !tbaa !10
  %116 = load i32, ptr %115, align 4, !tbaa !30
  %117 = call noundef signext i8 @_ZL9U_FAILURE10UErrorCode(i32 noundef %116)
  %118 = icmp ne i8 %117, 0
  br i1 %118, label %119, label %120

119:                                              ; preds = %114
  store i32 0, ptr %9, align 4, !tbaa !29
  br label %120

120:                                              ; preds = %119, %114
  %121 = load i32, ptr %9, align 4, !tbaa !29
  store i32 %121, ptr %4, align 4
  store i32 1, ptr %10, align 4
  br label %122

122:                                              ; preds = %120, %111, %35
  call void @llvm.lifetime.end.p0(i64 4, ptr %9) #13
  call void @llvm.lifetime.end.p0(i64 8, ptr %8) #13
  br label %123

123:                                              ; preds = %122, %20
  %124 = load i32, ptr %4, align 4
  ret i32 %124
}