; Function Attrs: mustprogress uwtable
define internal fastcc noundef i32 @_ZN6icu_7712_GLOBAL__N_17newYearERKNS_15ChineseCalendar7SettingEiR10UErrorCode(ptr noundef nonnull readonly align 8 captures(none) dereferenceable(32) %0, i32 noundef %1, ptr noundef nonnull align 4 dereferenceable(4) %2) unnamed_addr #0 {
  %4 = load i32, ptr %2, align 4, !tbaa !21
  %5 = icmp slt i32 %4, 1
  br i1 %5, label %6, label %.thread

6:                                                ; preds = %3
  %7 = getelementptr inbounds nuw i8, ptr %0, i64 8
  %8 = load ptr, ptr %7, align 8, !tbaa !28
  %9 = getelementptr inbounds nuw i8, ptr %0, i64 24
  %10 = load ptr, ptr %9, align 8, !tbaa !29
  %11 = tail call noundef i32 @_ZN6icu_7713CalendarCache3getEPPS0_iR10UErrorCode(ptr noundef %10, i32 noundef %1, ptr noundef nonnull align 4 dereferenceable(4) %2)
  %12 = load i32, ptr %2, align 4, !tbaa !21
  %13 = icmp slt i32 %12, 1
  br i1 %13, label %14, label %.thread

14:                                               ; preds = %6
  %15 = icmp eq i32 %11, 0
  br i1 %15, label %16, label %.thread

16:                                               ; preds = %14
  %17 = add nsw i32 %1, -1
  %18 = tail call fastcc noundef i32 @_ZN6icu_7712_GLOBAL__N_114winterSolsticeERKNS_15ChineseCalendar7SettingEiR10UErrorCode(ptr noundef nonnull align 8 dereferenceable(32) %0, i32 noundef %17, ptr noundef nonnull align 4 dereferenceable(4) %2)
  %19 = tail call fastcc noundef i32 @_ZN6icu_7712_GLOBAL__N_114winterSolsticeERKNS_15ChineseCalendar7SettingEiR10UErrorCode(ptr noundef nonnull align 8 dereferenceable(32) %0, i32 noundef %1, ptr noundef nonnull align 4 dereferenceable(4) %2)
  %20 = add nsw i32 %18, 1
  %21 = sitofp i32 %20 to double
  %22 = tail call fastcc noundef i32 @_ZN6icu_7712_GLOBAL__N_111newMoonNearEPKNS_8TimeZoneEdaR10UErrorCode(ptr noundef %8, double noundef %21, i8 noundef signext 1, ptr noundef nonnull align 4 dereferenceable(4) %2)
  %23 = add nsw i32 %22, 25
  %24 = sitofp i32 %23 to double
  %25 = tail call fastcc noundef i32 @_ZN6icu_7712_GLOBAL__N_111newMoonNearEPKNS_8TimeZoneEdaR10UErrorCode(ptr noundef %8, double noundef %24, i8 noundef signext 1, ptr noundef nonnull align 4 dereferenceable(4) %2)
  %26 = add nsw i32 %19, 1
  %27 = sitofp i32 %26 to double
  %28 = tail call fastcc noundef i32 @_ZN6icu_7712_GLOBAL__N_111newMoonNearEPKNS_8TimeZoneEdaR10UErrorCode(ptr noundef %8, double noundef %27, i8 noundef signext 0, ptr noundef nonnull align 4 dereferenceable(4) %2)
  %29 = load i32, ptr %2, align 4, !tbaa !21
  %30 = icmp slt i32 %29, 1
  br i1 %30, label %31, label %.thread

31:                                               ; preds = %16
  %32 = sub nsw i32 %28, %22
  %33 = sitofp i32 %32 to double
  %34 = load double, ptr @_ZN6icu_7718CalendarAstronomer13SYNODIC_MONTHE, align 8, !tbaa !30
  %35 = fdiv double %33, %34
  %36 = fcmp oge double %35, 0.000000e+00
  %37 = select i1 %36, double 5.000000e-01, double -5.000000e-01
  %38 = fadd double %35, %37
  %39 = fptosi double %38 to i32
  %40 = icmp eq i32 %39, 12
  br i1 %40, label %41, label %49

41:                                               ; preds = %31
  %42 = tail call fastcc noundef signext i8 @_ZN6icu_7712_GLOBAL__N_119hasNoMajorSolarTermEPKNS_8TimeZoneEiR10UErrorCode(ptr noundef %8, i32 noundef %22, ptr noundef nonnull align 4 dereferenceable(4) %2)
  %.not51 = icmp eq i8 %42, 0
  br i1 %.not51, label %43, label %45

43:                                               ; preds = %41
  %44 = tail call fastcc noundef signext i8 @_ZN6icu_7712_GLOBAL__N_119hasNoMajorSolarTermEPKNS_8TimeZoneEiR10UErrorCode(ptr noundef %8, i32 noundef %25, ptr noundef nonnull align 4 dereferenceable(4) %2)
  %.not52 = icmp eq i8 %44, 0
  br i1 %.not52, label %49, label %45

45:                                               ; preds = %43, %41
  %46 = add nsw i32 %25, 25
  %47 = sitofp i32 %46 to double
  %48 = tail call fastcc noundef i32 @_ZN6icu_7712_GLOBAL__N_111newMoonNearEPKNS_8TimeZoneEdaR10UErrorCode(ptr noundef %8, double noundef %47, i8 noundef signext 1, ptr noundef nonnull align 4 dereferenceable(4) %2)
  br label %49

49:                                               ; preds = %31, %43, %45
  %.245 = phi i32 [ %48, %45 ], [ %25, %43 ], [ %25, %31 ]
  %50 = load i32, ptr %2, align 4, !tbaa !21
  %51 = icmp slt i32 %50, 1
  br i1 %51, label %52, label %.thread

52:                                               ; preds = %49
  %53 = load ptr, ptr %9, align 8, !tbaa !29
  tail call void @_ZN6icu_7713CalendarCache3putEPPS0_iiR10UErrorCode(ptr noundef %53, i32 noundef %1, i32 noundef %.245, ptr noundef nonnull align 4 dereferenceable(4) %2)
  %.pre = load i32, ptr %2, align 4, !tbaa !21
  %54 = icmp sgt i32 %.pre, 0
  %55 = select i1 %54, i32 0, i32 %.245
  br label %.thread

.thread:                                          ; preds = %14, %52, %49, %16, %6, %3
  %.0 = phi i32 [ 0, %3 ], [ 0, %6 ], [ 0, %16 ], [ 0, %49 ], [ %55, %52 ], [ %11, %14 ]
  ret i32 %.0
}